target datalayout = "e-m:e-p270:32:32-p271:32:32-p272:64:64-i64:64-i128:128-f80:128-n8:16:32:64-S128"
target triple = "x86_64-pc-linux-gnu"

%struct.ZDICT_cover_params_t = type { i32, i32, i32, i32, double, i32, i32, %struct.ZDICT_params_t }
%struct.ZDICT_params_t = type { i32, i32, i32 }

; Function Attrs: nounwind uwtable
define internal i32 @ERR_isError(i64 noundef %0) #0 {
  %2 = alloca i64, align 8
  store i64 %0, ptr %2, align 8, !tbaa !11
  %3 = load i64, ptr %2, align 8, !tbaa !11
  %4 = icmp ugt i64 %3, -120
  %5 = zext i1 %4 to i32
  ret i32 %5
}

; Function Attrs: nounwind uwtable
define dso_local i64 @COVER_checkTotalCompressedSize(ptr noundef byval(%struct.ZDICT_cover_params_t) align 8 %0, ptr noundef %1, ptr noundef %2, ptr noundef %3, i64 noundef %4, i64 noundef %5, ptr noundef %6, i64 noundef %7) #0 {
  %9 = alloca i64, align 8
  %10 = alloca ptr, align 8
  %11 = alloca ptr, align 8
  %12 = alloca ptr, align 8
  %13 = alloca i64, align 8
  %14 = alloca i64, align 8
  %15 = alloca ptr, align 8
  %16 = alloca i64, align 8
  %17 = alloca i64, align 8
  %18 = alloca ptr, align 8
  %19 = alloca ptr, align 8
  %20 = alloca ptr, align 8
  %21 = alloca i64, align 8
  %22 = alloca i64, align 8
  %23 = alloca i64, align 8
  %24 = alloca i64, align 8
  %25 = alloca i32, align 4
  store ptr %1, ptr %10, align 8, !tbaa !4
  store ptr %2, ptr %11, align 8, !tbaa !23
  store ptr %3, ptr %12, align 8, !tbaa !4
  store i64 %4, ptr %13, align 8, !tbaa !11
  store i64 %5, ptr %14, align 8, !tbaa !11
  store ptr %6, ptr %15, align 8, !tbaa !23
  store i64 %7, ptr %16, align 8, !tbaa !11
  call void @llvm.lifetime.start.p0(i64 8, ptr %17) #10
  store i64 -1, ptr %17, align 8, !tbaa !11
  call void @llvm.lifetime.start.p0(i64 8, ptr %18) #10
  call void @llvm.lifetime.start.p0(i64 8, ptr %19) #10
  call void @llvm.lifetime.start.p0(i64 8, ptr %20) #10
  call void @llvm.lifetime.start.p0(i64 8, ptr %21) #10
  call void @llvm.lifetime.start.p0(i64 8, ptr %22) #10
  call void @llvm.lifetime.start.p0(i64 8, ptr %23) #10
  store i64 0, ptr %23, align 8, !tbaa !11
  %26 = getelementptr inbounds nuw %struct.ZDICT_cover_params_t, ptr %0, i32 0, i32 4
  %27 = load double, ptr %26, align 8, !tbaa !25
  %28 = fcmp olt double %27, 1.000000e+00
  br i1 %28, label %29, label %31

29:                                               ; preds = %8
  %30 = load i64, ptr %13, align 8, !tbaa !11
  br label %32

31:                                               ; preds = %8
  br label %32

32:                                               ; preds = %31, %29
  %33 = phi i64 [ %30, %29 ], [ 0, %31 ]
  store i64 %33, ptr %22, align 8, !tbaa !11
  br label %34

34:                                               ; preds = %54, %32
  %35 = load i64, ptr %22, align 8, !tbaa !11
  %36 = load i64, ptr %14, align 8, !tbaa !11
  %37 = icmp ult i64 %35, %36
  br i1 %37, label %38, label %57

38:                                               ; preds = %34
  %39 = load ptr, ptr %10, align 8, !tbaa !4
  %40 = load i64, ptr %22, align 8, !tbaa !11
  %41 = getelementptr inbounds nuw i64, ptr %39, i64 %40
  %42 = load i64, ptr %41, align 8, !tbaa !11
  %43 = load i64, ptr %23, align 8, !tbaa !11
  %44 = icmp ugt i64 %42, %43
  br i1 %44, label %45, label %50

45:                                               ; preds = %38
  %46 = load ptr, ptr %10, align 8, !tbaa !4
  %47 = load i64, ptr %22, align 8, !tbaa !11
  %48 = getelementptr inbounds nuw i64, ptr %46, i64 %47
  %49 = load i64, ptr %48, align 8, !tbaa !11
  br label %52

50:                                               ; preds = %38
  %51 = load i64, ptr %23, align 8, !tbaa !11
  br label %52

52:                                               ; preds = %50, %45
  %53 = phi i64 [ %49, %45 ], [ %51, %50 ]
  store i64 %53, ptr %23, align 8, !tbaa !11
  br label %54

54:                                               ; preds = %52
  %55 = load i64, ptr %22, align 8, !tbaa !11
  %56 = add i64 %55, 1
  store i64 %56, ptr %22, align 8, !tbaa !11
  br label %34, !llvm.loop !59

57:                                               ; preds = %34
  %58 = load i64, ptr %23, align 8, !tbaa !11
  %59 = call i64 @ZSTD_compressBound(i64 noundef %58)
  store i64 %59, ptr %21, align 8, !tbaa !11
  %60 = load i64, ptr %21, align 8, !tbaa !11
  %61 = call noalias ptr @malloc(i64 noundef %60) #11
  store ptr %61, ptr %20, align 8, !tbaa !22
  call void @llvm.lifetime.end.p0(i64 8, ptr %23) #10
  %62 = call ptr @ZSTD_createCCtx()
  store ptr %62, ptr %18, align 8, !tbaa !60
  %63 = load ptr, ptr %15, align 8, !tbaa !23
  %64 = load i64, ptr %16, align 8, !tbaa !11
  %65 = getelementptr inbounds nuw %struct.ZDICT_cover_params_t, ptr %0, i32 0, i32 7
  %66 = getelementptr inbounds nuw %struct.ZDICT_params_t, ptr %65, i32 0, i32 0
  %67 = load i32, ptr %66, align 8, !tbaa !62
  %68 = call ptr @ZSTD_createCDict(ptr noundef %63, i64 noundef %64, i32 noundef %67)
  store ptr %68, ptr %19, align 8, !tbaa !63
  %69 = load ptr, ptr %20, align 8, !tbaa !22
  %70 = icmp ne ptr %69, null
  br i1 %70, label %71, label %77

71:                                               ; preds = %57
  %72 = load ptr, ptr %18, align 8, !tbaa !60
  %73 = icmp ne ptr %72, null
  br i1 %73, label %74, label %77

74:                                               ; preds = %71
  %75 = load ptr, ptr %19, align 8, !tbaa !63
  %76 = icmp ne ptr %75, null
  br i1 %76, label %78, label %77

77:                                               ; preds = %74, %71, %57
  br label %124

78:                                               ; preds = %74
  %79 = load i64, ptr %16, align 8, !tbaa !11
  store i64 %79, ptr %17, align 8, !tbaa !11
  %80 = getelementptr inbounds nuw %struct.ZDICT_cover_params_t, ptr %0, i32 0, i32 4
  %81 = load double, ptr %80, align 8, !tbaa !25
  %82 = fcmp olt double %81, 1.000000e+00
  br i1 %82, label %83, label %85

83:                                               ; preds = %78
  %84 = load i64, ptr %13, align 8, !tbaa !11
  br label %86

85:                                               ; preds = %78
  br label %86

86:                                               ; preds = %85, %83
  %87 = phi i64 [ %84, %83 ], [ 0, %85 ]
  store i64 %87, ptr %22, align 8, !tbaa !11
  br label %88

88:                                               ; preds = %120, %86
  %89 = load i64, ptr %22, align 8, !tbaa !11
  %90 = load i64, ptr %14, align 8, !tbaa !11
  %91 = icmp ult i64 %89, %90
  br i1 %91, label %92, label %123

92:                                               ; preds = %88
  call void @llvm.lifetime.start.p0(i64 8, ptr %24) #10
  %93 = load ptr, ptr %18, align 8, !tbaa !60
  %94 = load ptr, ptr %20, align 8, !tbaa !22
  %95 = load i64, ptr %21, align 8, !tbaa !11
  %96 = load ptr, ptr %11, align 8, !tbaa !23
  %97 = load ptr, ptr %12, align 8, !tbaa !4
  %98 = load i64, ptr %22, align 8, !tbaa !11
  %99 = getelementptr inbounds nuw i64, ptr %97, i64 %98
  %100 = load i64, ptr %99, align 8, !tbaa !11
  %101 = getelementptr inbounds nuw i8, ptr %96, i64 %100
  %102 = load ptr, ptr %10, align 8, !tbaa !4
  %103 = load i64, ptr %22, align 8, !tbaa !11
  %104 = getelementptr inbounds nuw i64, ptr %102, i64 %103
  %105 = load i64, ptr %104, align 8, !tbaa !11
  %106 = load ptr, ptr %19, align 8, !tbaa !63
  %107 = call i64 @ZSTD_compress_usingCDict(ptr noundef %93, ptr noundef %94, i64 noundef %95, ptr noundef %101, i64 noundef %105, ptr noundef %106)
  store i64 %107, ptr %24, align 8, !tbaa !11
  %108 = load i64, ptr %24, align 8, !tbaa !11
  %109 = call i32 @ERR_isError(i64 noundef %108)
  %110 = icmp ne i32 %109, 0
  br i1 %110, label %111, label %113

111:                                              ; preds = %92
  %112 = load i64, ptr %24, align 8, !tbaa !11
  store i64 %112, ptr %17, align 8, !tbaa !11
  store i32 5, ptr %25, align 4
  br label %117

113:                                              ; preds = %92
  %114 = load i64, ptr %24, align 8, !tbaa !11
  %115 = load i64, ptr %17, align 8, !tbaa !11
  %116 = add i64 %115, %114
  store i64 %116, ptr %17, align 8, !tbaa !11
  store i32 0, ptr %25, align 4
  br label %117

117:                                              ; preds = %111, %113
  call void @llvm.lifetime.end.p0(i64 8, ptr %24) #10
  %118 = load i32, ptr %25, align 4
  switch i32 %118, label %135 [
    i32 0, label %119
    i32 5, label %124
  ]

119:                                              ; preds = %117
  br label %120

120:                                              ; preds = %119
  %121 = load i64, ptr %22, align 8, !tbaa !11
  %122 = add i64 %121, 1
  store i64 %122, ptr %22, align 8, !tbaa !11
  br label %88, !llvm.loop !65

123:                                              ; preds = %88
  br label %124

124:                                              ; preds = %123, %117, %77
  %125 = load ptr, ptr %18, align 8, !tbaa !60
  %126 = call i64 @ZSTD_freeCCtx(ptr noundef %125)
  %127 = load ptr, ptr %19, align 8, !tbaa !63
  %128 = call i64 @ZSTD_freeCDict(ptr noundef %127)
  %129 = load ptr, ptr %20, align 8, !tbaa !22
  %130 = icmp ne ptr %129, null
  br i1 %130, label %131, label %133

131:                                              ; preds = %124
  %132 = load ptr, ptr %20, align 8, !tbaa !22
  call void @free(ptr noundef %132) #10
  br label %133

133:                                              ; preds = %131, %124
  %134 = load i64, ptr %17, align 8, !tbaa !11
  store i64 %134, ptr %9, align 8
  store i32 1, ptr %25, align 4
  br label %135

135:                                              ; preds = %133, %117
  call void @llvm.lifetime.end.p0(i64 8, ptr %22) #10
  call void @llvm.lifetime.end.p0(i64 8, ptr %21) #10
  call void @llvm.lifetime.end.p0(i64 8, ptr %20) #10
  call void @llvm.lifetime.end.p0(i64 8, ptr %19) #10
  call void @llvm.lifetime.end.p0(i64 8, ptr %18) #10
  call void @llvm.lifetime.end.p0(i64 8, ptr %17) #10
  %136 = load i64, ptr %9, align 8
  ret i64 %136
}